; Function Attrs: inlinehint mustprogress nounwind uwtable
define internal void @_ZN4absl13time_internal4cctz12_GLOBAL__N_121AndroidZoneInfoSourceD0Ev(ptr noundef nonnull align 8 dereferenceable(64) initializes((0, 8)) %0) unnamed_addr #6 align 2 personality ptr @__gxx_personality_v0 {
  store ptr getelementptr inbounds nuw inrange(-16, 40) (i8, ptr @_ZTVN4absl13time_internal4cctz12_GLOBAL__N_121AndroidZoneInfoSourceE, i64 16), ptr %0, align 8, !tbaa !114
  %2 = getelementptr inbounds nuw i8, ptr %0, i64 32
  %3 = load ptr, ptr %2, align 8, !tbaa !22
  %4 = getelementptr inbounds nuw i8, ptr %0, i64 48
  %5 = icmp eq ptr %3, %4
  br i1 %5, label %_ZNKSt7__cxx1112basic_stringIcSt11char_traitsIcESaIcEE11_M_is_localEv.exit.thread.i.i.i, label %_ZNKSt7__cxx1112basic_stringIcSt11char_traitsIcESaIcEE11_M_is_localEv.exit.i.i.i

_ZNKSt7__cxx1112basic_stringIcSt11char_traitsIcESaIcEE11_M_is_localEv.exit.thread.i.i.i: ; preds = %1
  %6 = getelementptr inbounds nuw i8, ptr %0, i64 40
  %7 = load i64, ptr %6, align 8, !tbaa !4
  %8 = icmp ult i64 %7, 16
  tail call void @llvm.assume(i1 %8)
  br label %_ZNSt7__cxx1112basic_stringIcSt11char_traitsIcESaIcEED2Ev.exit.i

_ZNKSt7__cxx1112basic_stringIcSt11char_traitsIcESaIcEE11_M_is_localEv.exit.i.i.i: ; preds = %1
  %9 = load i64, ptr %4, align 8, !tbaa !33
  %10 = add i64 %9, 1
  tail call void @_ZdlPvm(ptr noundef %3, i64 noundef %10) #28
  br label %_ZNSt7__cxx1112basic_stringIcSt11char_traitsIcESaIcEED2Ev.exit.i

_ZNSt7__cxx1112basic_stringIcSt11char_traitsIcESaIcEED2Ev.exit.i: ; preds = %_ZNKSt7__cxx1112basic_stringIcSt11char_traitsIcESaIcEE11_M_is_localEv.exit.i.i.i, %_ZNKSt7__cxx1112basic_stringIcSt11char_traitsIcESaIcEE11_M_is_localEv.exit.thread.i.i.i
  store ptr getelementptr inbounds nuw inrange(-16, 40) (i8, ptr @_ZTVN4absl13time_internal4cctz12_GLOBAL__N_118FileZoneInfoSourceE, i64 16), ptr %0, align 8, !tbaa !114
  %11 = getelementptr inbounds nuw i8, ptr %0, i64 16
  %12 = load ptr, ptr %11, align 8, !tbaa !267
  %.not.i.i.i = icmp eq ptr %12, null
  br i1 %.not.i.i.i, label %_ZN4absl13time_internal4cctz12_GLOBAL__N_121AndroidZoneInfoSourceD2Ev.exit, label %13

13:                                               ; preds = %_ZNSt7__cxx1112basic_stringIcSt11char_traitsIcESaIcEED2Ev.exit.i
  %14 = getelementptr inbounds nuw i8, ptr %0, i64 8
  %15 = load ptr, ptr %14, align 8, !tbaa !146
  %16 = invoke noundef i32 %15(ptr noundef nonnull %12)
          to label %_ZN4absl13time_internal4cctz12_GLOBAL__N_121AndroidZoneInfoSourceD2Ev.exit unwind label %17

17:                                               ; preds = %13
  %18 = landingpad { ptr, i32 }
          catch ptr null
  %19 = extractvalue { ptr, i32 } %18, 0
  tail call void @__clang_call_terminate(ptr %19) #29
  unreachable

_ZN4absl13time_internal4cctz12_GLOBAL__N_121AndroidZoneInfoSourceD2Ev.exit: ; preds = %_ZNSt7__cxx1112basic_stringIcSt11char_traitsIcESaIcEED2Ev.exit.i, %13
  store ptr null, ptr %11, align 8, !tbaa !267
  tail call void @_ZN4absl13time_internal4cctz14ZoneInfoSourceD2Ev(ptr noundef nonnull align 8 dereferenceable(64) %0) #25
  tail call void @_ZdlPvm(ptr noundef nonnull %0, i64 noundef 64) #28
  ret void
}